target datalayout = "e-m:e-p270:32:32-p271:32:32-p272:64:64-i64:64-i128:128-f80:128-n8:16:32:64-S128"
target triple = "x86_64-unknown-linux-gnu"

%"class.hermes::vm::PinnedHermesValue" = type { %"class.hermes::vm::HermesValue" }
%"class.hermes::vm::HermesValue" = type { i64 }
%"class.hermes::vm::SymbolID" = type { i32 }
%"class.facebook::jsi::Pointer" = type { ptr }
%"struct.facebook::hermes::HermesRuntimeImpl::ManagedValue" = type { %"struct.facebook::jsi::Runtime::PointerValue", %"struct.std::atomic.315", %union.anon.317 }
%"struct.facebook::jsi::Runtime::PointerValue" = type { ptr }
%"struct.std::atomic.315" = type { %"struct.std::__atomic_base.316" }
%"struct.std::__atomic_base.316" = type { i32 }
%union.anon.317 = type { %"class.hermes::vm::PinnedHermesValue" }

; Function Attrs: mustprogress nounwind uwtable
define linkonce_odr hidden void @_ZN6hermes2vm8SymbolIDC2Ej(ptr noundef nonnull align 4 dereferenceable(4) %this, i32 noundef %id) unnamed_addr #1 comdat align 2 {
entry:
  %this.addr = alloca ptr, align 8
  %id.addr = alloca i32, align 4
  store ptr %this, ptr %this.addr, align 8
  store i32 %id, ptr %id.addr, align 4
  %this1 = load ptr, ptr %this.addr, align 8
  %id_ = getelementptr inbounds %"class.hermes::vm::SymbolID", ptr %this1, i32 0, i32 0
  %0 = load i32, ptr %id.addr, align 4
  store i32 %0, ptr %id_, align 4
  ret void
}

; Function Attrs: mustprogress uwtable
define linkonce_odr hidden i32 @_ZN6hermes2vm8SymbolID12unsafeCreateEj(i32 noundef %id) #0 comdat align 2 {
entry:
  %retval = alloca %"class.hermes::vm::SymbolID", align 4
  %id.addr = alloca i32, align 4
  store i32 %id, ptr %id.addr, align 4
  %0 = load i32, ptr %id.addr, align 4
  call void @_ZN6hermes2vm8SymbolIDC2Ej(ptr noundef nonnull align 4 dereferenceable(4) %retval, i32 noundef %0)
  %coerce.dive = getelementptr inbounds %"class.hermes::vm::SymbolID", ptr %retval, i32 0, i32 0
  %1 = load i32, ptr %coerce.dive, align 4
  ret i32 %1
}

; Function Attrs: mustprogress nounwind uwtable
define linkonce_odr hidden noundef nonnull align 8 dereferenceable(8) ptr @_ZNK8facebook6hermes17HermesRuntimeImpl12ManagedValueIN6hermes2vm17PinnedHermesValueEE5valueEv(ptr noundef nonnull align 8 dereferenceable(24) %this) #1 comdat align 2 {
entry:
  %this.addr = alloca ptr, align 8
  store ptr %this, ptr %this.addr, align 8
  %this1 = load ptr, ptr %this.addr, align 8
  %0 = getelementptr inbounds %"struct.facebook::hermes::HermesRuntimeImpl::ManagedValue", ptr %this1, i32 0, i32 2
  ret ptr %0
}

; Function Attrs: mustprogress nounwind uwtable
define linkonce_odr noundef ptr @_ZN8facebook3jsi7Runtime15getPointerValueERKNS0_7PointerE(ptr noundef nonnull align 8 dereferenceable(8) %pointer) #1 comdat align 2 {
entry:
  %pointer.addr = alloca ptr, align 8
  store ptr %pointer, ptr %pointer.addr, align 8
  %0 = load ptr, ptr %pointer.addr, align 8
  %ptr_ = getelementptr inbounds %"class.facebook::jsi::Pointer", ptr %0, i32 0, i32 0
  %1 = load ptr, ptr %ptr_, align 8
  ret ptr %1
}

; Function Attrs: mustprogress nounwind uwtable
define linkonce_odr hidden noundef zeroext i1 @_ZNK6hermes2vm8SymbolIDeqES1_(ptr noundef nonnull align 4 dereferenceable(4) %this, i32 %sym.coerce) #1 comdat align 2 {
entry:
  %sym = alloca %"class.hermes::vm::SymbolID", align 4
  %this.addr = alloca ptr, align 8
  %coerce.dive = getelementptr inbounds %"class.hermes::vm::SymbolID", ptr %sym, i32 0, i32 0
  store i32 %sym.coerce, ptr %coerce.dive, align 4
  store ptr %this, ptr %this.addr, align 8
  %this1 = load ptr, ptr %this.addr, align 8
  %id_ = getelementptr inbounds %"class.hermes::vm::SymbolID", ptr %this1, i32 0, i32 0
  %0 = load i32, ptr %id_, align 4
  %id_2 = getelementptr inbounds %"class.hermes::vm::SymbolID", ptr %sym, i32 0, i32 0
  %1 = load i32, ptr %id_2, align 4
  %cmp = icmp eq i32 %0, %1
  ret i1 %cmp
}

; Function Attrs: mustprogress uwtable
define linkonce_odr hidden i32 @_ZNK6hermes2vm11HermesValue9getSymbolEv(ptr noundef nonnull align 8 dereferenceable(8) %this) #0 comdat align 2 {
entry:
  %retval = alloca %"class.hermes::vm::SymbolID", align 4
  %this.addr = alloca ptr, align 8
  store ptr %this, ptr %this.addr, align 8
  %this1 = load ptr, ptr %this.addr, align 8
  %raw_ = getelementptr inbounds %"class.hermes::vm::HermesValue", ptr %this1, i32 0, i32 0
  %0 = load i64, ptr %raw_, align 8
  %conv = trunc i64 %0 to i32
  %call = call i32 @_ZN6hermes2vm8SymbolID12unsafeCreateEj(i32 noundef %conv)
  %coerce.dive = getelementptr inbounds %"class.hermes::vm::SymbolID", ptr %retval, i32 0, i32 0
  store i32 %call, ptr %coerce.dive, align 4
  %coerce.dive2 = getelementptr inbounds %"class.hermes::vm::SymbolID", ptr %retval, i32 0, i32 0
  %1 = load i32, ptr %coerce.dive2, align 4
  ret i32 %1
}

; Function Attrs: mustprogress uwtable
define linkonce_odr hidden noundef nonnull align 8 dereferenceable(8) ptr @_ZN8facebook6hermes17HermesRuntimeImpl3phvERKNS_3jsi7PointerE(ptr noundef nonnull align 8 dereferenceable(8) %pointer) #0 comdat align 2 {
entry:
  %pointer.addr = alloca ptr, align 8
  store ptr %pointer, ptr %pointer.addr, align 8
  %0 = load ptr, ptr %pointer.addr, align 8
  %call = call noundef ptr @_ZN8facebook3jsi7Runtime15getPointerValueERKNS0_7PointerE(ptr noundef nonnull align 8 dereferenceable(8) %0)
  %call1 = call noundef nonnull align 8 dereferenceable(8) ptr @_ZNK8facebook6hermes17HermesRuntimeImpl12ManagedValueIN6hermes2vm17PinnedHermesValueEE5valueEv(ptr noundef nonnull align 8 dereferenceable(24) %call)
  ret ptr %call1
}

; Function Attrs: mustprogress uwtable
define hidden noundef zeroext i1 @_ZNK8facebook6hermes17HermesRuntimeImpl12strictEqualsERKNS_3jsi6SymbolES5_(ptr noundef nonnull align 8 dereferenceable(184) %this, ptr noundef nonnull align 8 dereferenceable(8) %a, ptr noundef nonnull align 8 dereferenceable(8) %b) unnamed_addr #0 align 2 {
entry:
  %this.addr = alloca ptr, align 8
  %a.addr = alloca ptr, align 8
  %b.addr = alloca ptr, align 8
  %ref.tmp = alloca %"class.hermes::vm::SymbolID", align 4
  %agg.tmp = alloca %"class.hermes::vm::SymbolID", align 4
  store ptr %this, ptr %this.addr, align 8
  store ptr %a, ptr %a.addr, align 8
  store ptr %b, ptr %b.addr, align 8
  %0 = load ptr, ptr %a.addr, align 8
  %call = call noundef nonnull align 8 dereferenceable(8) ptr @_ZN8facebook6hermes17HermesRuntimeImpl3phvERKNS_3jsi7PointerE(ptr noundef nonnull align 8 dereferenceable(8) %0)
  %call2 = call i32 @_ZNK6hermes2vm11HermesValue9getSymbolEv(ptr noundef nonnull align 8 dereferenceable(8) %call)
  %coerce.dive = getelementptr inbounds %"class.hermes::vm::SymbolID", ptr %ref.tmp, i32 0, i32 0
  store i32 %call2, ptr %coerce.dive, align 4
  %1 = load ptr, ptr %b.addr, align 8
  %call3 = call noundef nonnull align 8 dereferenceable(8) ptr @_ZN8facebook6hermes17HermesRuntimeImpl3phvERKNS_3jsi7PointerE(ptr noundef nonnull align 8 dereferenceable(8) %1)
  %call4 = call i32 @_ZNK6hermes2vm11HermesValue9getSymbolEv(ptr noundef nonnull align 8 dereferenceable(8) %call3)
  %coerce.dive5 = getelementptr inbounds %"class.hermes::vm::SymbolID", ptr %agg.tmp, i32 0, i32 0
  store i32 %call4, ptr %coerce.dive5, align 4
  %coerce.dive6 = getelementptr inbounds %"class.hermes::vm::SymbolID", ptr %agg.tmp, i32 0, i32 0
  %2 = load i32, ptr %coerce.dive6, align 4
  %call7 = call noundef zeroext i1 @_ZNK6hermes2vm8SymbolIDeqES1_(ptr noundef nonnull align 4 dereferenceable(4) %ref.tmp, i32 %2)
  ret i1 %call7
}