; Function Attrs: mustprogress nofree norecurse nosync nounwind willreturn memory(read, inaccessiblemem: none) uwtable
define hidden noundef zeroext i1 @_ZNK8facebook6hermes17HermesRuntimeImpl12strictEqualsERKNS_3jsi6SymbolES5_(ptr nocapture nonnull readnone align 8 %this, ptr nocapture noundef nonnull readonly align 8 dereferenceable(8) %a, ptr nocapture noundef nonnull readonly align 8 dereferenceable(8) %b) unnamed_addr #13 align 2 {
entry:
  %0 = load ptr, ptr %a, align 8
  %1 = getelementptr inbounds i8, ptr %0, i64 16
  %2 = load i64, ptr %1, align 8
  %conv.i = trunc i64 %2 to i32
  %3 = load ptr, ptr %b, align 8
  %4 = getelementptr inbounds i8, ptr %3, i64 16
  %5 = load i64, ptr %4, align 8
  %conv.i1 = trunc i64 %5 to i32
  %cmp.i = icmp eq i32 %conv.i, %conv.i1
  ret i1 %cmp.i
}